target datalayout = "e-m:e-p270:32:32-p271:32:32-p272:64:64-i64:64-i128:128-f80:128-n8:16:32:64-S128"
target triple = "x86_64-pc-linux-gnu"

%struct.return_code_msg = type { i32 }

; Function Attrs: nounwind uwtable
define dso_local i32 @slurm_send_rc_msg(ptr noundef %0, i32 noundef %1) #0 {
  %3 = alloca i32, align 4
  %4 = alloca ptr, align 8
  %5 = alloca i32, align 4
  %6 = alloca %struct.return_code_msg, align 4
  %7 = alloca i32, align 4
  store ptr %0, ptr %4, align 8
  store i32 %1, ptr %5, align 4
  call void @llvm.lifetime.start.p0(i64 4, ptr %6) #12
  %8 = getelementptr inbounds nuw %struct.return_code_msg, ptr %6, i32 0, i32 0
  %9 = load i32, ptr %5, align 4
  store i32 %9, ptr %8, align 4
  %10 = load ptr, ptr %4, align 8
  %11 = call i32 @send_msg_response(ptr noundef %10, i32 noundef 8001, ptr noundef %6)
  store i32 %11, ptr %5, align 4
  %12 = icmp ne i32 %11, 0
  br i1 %12, label %13, label %16

13:                                               ; preds = %2
  %14 = load i32, ptr %5, align 4
  %15 = call ptr @__errno_location() #14
  store i32 %14, ptr %15, align 4
  store i32 -1, ptr %3, align 4
  store i32 1, ptr %7, align 4
  br label %17

16:                                               ; preds = %2
  store i32 0, ptr %3, align 4
  store i32 1, ptr %7, align 4
  br label %17

17:                                               ; preds = %16, %13
  call void @llvm.lifetime.end.p0(i64 4, ptr %6) #12
  %18 = load i32, ptr %3, align 4
  ret i32 %18
}