; Function Attrs: nounwind uwtable
define dso_local range(i32 -1, 1) i32 @slurm_send_rc_msg(ptr noundef readonly captures(none) %0, i32 noundef %1) local_unnamed_addr #1 {
  %3 = alloca %struct.return_code_msg, align 4
  call void @llvm.lifetime.start.p0(i64 4, ptr nonnull %3) #19
  store i32 %1, ptr %3, align 4
  %4 = call i32 @send_msg_response(ptr noundef %0, i32 noundef 8001, ptr noundef nonnull %3)
  %.not = icmp eq i32 %4, 0
  br i1 %.not, label %7, label %5

5:                                                ; preds = %2
  %6 = tail call ptr @__errno_location() #21
  store i32 %4, ptr %6, align 4
  br label %7

7:                                                ; preds = %2, %5
  %.0 = phi i32 [ -1, %5 ], [ 0, %2 ]
  call void @llvm.lifetime.end.p0(i64 4, ptr nonnull %3) #19
  ret i32 %.0
}